target datalayout = "e-m:e-p270:32:32-p271:32:32-p272:64:64-i64:64-i128:128-f80:128-n8:16:32:64-S128"
target triple = "x86_64-pc-linux-gnu"

%struct.expert_field = type { i32, i32 }

@ei_gsm_a_dtap_extraneous_data = internal global %struct.expert_field zeroinitializer, align 4
@hf_gsm_a_dtap_bcc_cause_structure = internal global i32 0, align 4
@hf_gsm_a_dtap_bcc_cause = internal global i32 0, align 4

; Function Attrs: null_pointer_is_valid sspstrong uwtable
define internal zeroext i16 @de_bcc_cause(ptr noundef %0, ptr noundef %1, ptr noundef %2, i32 noundef %3, i32 noundef %4, ptr noundef %5, i32 noundef %6) #1 {
  %8 = alloca ptr, align 8
  %9 = alloca ptr, align 8
  %10 = alloca ptr, align 8
  %11 = alloca i32, align 4
  %12 = alloca i32, align 4
  %13 = alloca ptr, align 8
  %14 = alloca i32, align 4
  %15 = alloca i32, align 4
  %16 = alloca i32, align 4
  store ptr %0, ptr %8, align 8
  store ptr %1, ptr %9, align 8
  store ptr %2, ptr %10, align 8
  store i32 %3, ptr %11, align 4
  store i32 %4, ptr %12, align 4
  store ptr %5, ptr %13, align 8
  store i32 %6, ptr %14, align 4
  call void @llvm.lifetime.start.p0(i64 4, ptr %15) #7
  call void @llvm.lifetime.start.p0(i64 4, ptr %16) #7
  %17 = load i32, ptr %12, align 4
  store i32 %17, ptr %16, align 4
  %18 = load i32, ptr %11, align 4
  store i32 %18, ptr %15, align 4
  %19 = load ptr, ptr %9, align 8
  %20 = load i32, ptr @hf_gsm_a_dtap_bcc_cause_structure, align 4
  %21 = load ptr, ptr %8, align 8
  %22 = load i32, ptr %15, align 4
  %23 = call ptr @proto_tree_add_item(ptr noundef %19, i32 noundef %20, ptr noundef %21, i32 noundef %22, i32 noundef 1, i32 noundef 0)
  %24 = load ptr, ptr %9, align 8
  %25 = load i32, ptr @hf_gsm_a_dtap_bcc_cause, align 4
  %26 = load ptr, ptr %8, align 8
  %27 = load i32, ptr %15, align 4
  %28 = call ptr @proto_tree_add_item(ptr noundef %24, i32 noundef %25, ptr noundef %26, i32 noundef %27, i32 noundef 1, i32 noundef 0)
  %29 = load i32, ptr %15, align 4
  %30 = add i32 %29, 1
  store i32 %30, ptr %15, align 4
  %31 = load i32, ptr %16, align 4
  %32 = add i32 %31, -1
  store i32 %32, ptr %16, align 4
  %33 = load i32, ptr %16, align 4
  %34 = icmp sgt i32 %33, 0
  br i1 %34, label %35, label %47

35:                                               ; preds = %7
  %36 = load ptr, ptr %9, align 8
  %37 = load ptr, ptr %10, align 8
  %38 = load ptr, ptr %8, align 8
  %39 = load i32, ptr %15, align 4
  %40 = load i32, ptr %16, align 4
  %41 = sub i32 %40, 0
  %42 = call ptr @proto_tree_add_expert(ptr noundef %36, ptr noundef %37, ptr noundef @ei_gsm_a_dtap_extraneous_data, ptr noundef %38, i32 noundef %39, i32 noundef %41)
  %43 = load i32, ptr %16, align 4
  %44 = sub i32 %43, 0
  %45 = load i32, ptr %15, align 4
  %46 = add i32 %45, %44
  store i32 %46, ptr %15, align 4
  br label %47

47:                                               ; preds = %35, %7
  %48 = load i32, ptr %15, align 4
  %49 = load i32, ptr %11, align 4
  %50 = sub i32 %48, %49
  %51 = trunc i32 %50 to i16
  call void @llvm.lifetime.end.p0(i64 4, ptr %16) #7
  call void @llvm.lifetime.end.p0(i64 4, ptr %15) #7
  ret i16 %51
}